; Function Attrs: nofree norecurse nosync nounwind memory(argmem: readwrite) uwtable
define hidden void @cfl_subsample_lbd_444_32x16_c(ptr nocapture noundef readonly %0, i32 noundef %1, ptr nocapture noundef writeonly %2) #5 {
  %4 = sext i32 %1 to i64
  br label %.preheader.us.i

.preheader.us.i:                                  ; preds = %._crit_edge.us.i, %3
  %.01218.us.i = phi i32 [ %13, %._crit_edge.us.i ], [ 0, %3 ]
  %.01317.us.i = phi ptr [ %11, %._crit_edge.us.i ], [ %0, %3 ]
  %.01416.us.i = phi ptr [ %12, %._crit_edge.us.i ], [ %2, %3 ]
  br label %5

5:                                                ; preds = %5, %.preheader.us.i
  %indvars.iv.i = phi i64 [ 0, %.preheader.us.i ], [ %indvars.iv.next.i, %5 ]
  %6 = getelementptr inbounds i8, ptr %.01317.us.i, i64 %indvars.iv.i
  %7 = load i8, ptr %6, align 1
  %8 = zext i8 %7 to i16
  %9 = shl nuw nsw i16 %8, 3
  %10 = getelementptr inbounds i16, ptr %.01416.us.i, i64 %indvars.iv.i
  store i16 %9, ptr %10, align 2
  %indvars.iv.next.i = add nuw nsw i64 %indvars.iv.i, 1
  %exitcond.not.i = icmp eq i64 %indvars.iv.next.i, 32
  br i1 %exitcond.not.i, label %._crit_edge.us.i, label %5, !llvm.loop !23

._crit_edge.us.i:                                 ; preds = %5
  %11 = getelementptr inbounds i8, ptr %.01317.us.i, i64 %4
  %12 = getelementptr inbounds i8, ptr %.01416.us.i, i64 64
  %13 = add nuw nsw i32 %.01218.us.i, 1
  %exitcond22.not.i = icmp eq i32 %13, 16
  br i1 %exitcond22.not.i, label %cfl_luma_subsampling_444_lbd_c.exit, label %.preheader.us.i, !llvm.loop !24

cfl_luma_subsampling_444_lbd_c.exit:              ; preds = %._crit_edge.us.i
  ret void
}